target datalayout = "e-m:e-p270:32:32-p271:32:32-p272:64:64-i64:64-i128:128-f80:128-n8:16:32:64-S128"
target triple = "x86_64-pc-linux-gnu"

@plugin_name = dso_local constant [27 x i8] c"job_container tmpfs plugin\00", align 16
@plugin_type = dso_local constant [20 x i8] c"job_container/tmpfs\00", align 16
@.str.3 = private unnamed_addr constant [20 x i8] c"%s: %s: %s unloaded\00", align 1
@__func__.fini = private unnamed_addr constant [5 x i8] c"fini\00", align 1
@step_ns_fd = internal global i32 -1, align 4

; Function Attrs: nounwind uwtable
define dso_local i32 @fini() #0 {
  %1 = alloca i32, align 4
  call void @llvm.lifetime.start.p0(i64 4, ptr %1) #8
  store i32 0, ptr %1, align 4
  br label %2

2:                                                ; preds = %0
  br label %3

3:                                                ; preds = %2
  %4 = call i32 @slurm_get_log_level()
  %5 = icmp sge i32 %4, 5
  br i1 %5, label %6, label %7

6:                                                ; preds = %3
  call void (i32, ptr, ...) @slurm_log_var(i32 noundef 5, ptr noundef @.str.3, ptr noundef @plugin_type, ptr noundef @__func__.fini, ptr noundef @plugin_name)
  br label %7

7:                                                ; preds = %6, %3
  br label %8

8:                                                ; preds = %7
  br label %9

9:                                                ; preds = %8
  br label %10

10:                                               ; preds = %9
  br label %11

11:                                               ; preds = %10
  %12 = load i32, ptr @step_ns_fd, align 4
  %13 = icmp ne i32 %12, -1
  br i1 %13, label %14, label %17

14:                                               ; preds = %11
  %15 = load i32, ptr @step_ns_fd, align 4
  %16 = call i32 @close(i32 noundef %15)
  store i32 -1, ptr @step_ns_fd, align 4
  br label %17

17:                                               ; preds = %14, %11
  %18 = load i32, ptr %1, align 4
  call void @llvm.lifetime.end.p0(i64 4, ptr %1) #8
  ret i32 %18
}