; Function Attrs: nounwind uwtable
define dso_local noundef i32 @fini() local_unnamed_addr #0 {
  %1 = tail call i32 @slurm_get_log_level() #12
  %2 = icmp sgt i32 %1, 4
  br i1 %2, label %3, label %4

3:                                                ; preds = %0
  tail call void (i32, ptr, ...) @slurm_log_var(i32 noundef 5, ptr noundef nonnull @.str.3, ptr noundef nonnull @plugin_type, ptr noundef nonnull @__func__.fini, ptr noundef nonnull @plugin_name) #12
  br label %4

4:                                                ; preds = %3, %0
  %5 = load i32, ptr @step_ns_fd, align 4
  %.not = icmp eq i32 %5, -1
  br i1 %.not, label %8, label %6

6:                                                ; preds = %4
  %7 = tail call i32 @close(i32 noundef %5) #12
  store i32 -1, ptr @step_ns_fd, align 4
  br label %8

8:                                                ; preds = %6, %4
  ret i32 0
}